; ModuleID = 'source-C-CXX/61/1802.cpp'
source_filename = "source-C-CXX/61/1802.cpp"
target datalayout = "e-m:e-p270:32:32-p271:32:32-p272:64:64-i64:64-f80:128-n8:16:32:64-S128"
target triple = "x86_64-pc-linux-gnu"

%"class.std::ios_base::Init" = type { i8 }
%"class.std::basic_istream" = type { i32 (...)**, i64, %"class.std::basic_ios" }
%"class.std::basic_ios" = type { %"class.std::ios_base", %"class.std::basic_ostream"*, i8, i8, %"class.std::basic_streambuf"*, %"class.std::ctype"*, %"class.std::num_put"*, %"class.std::num_get"* }
%"class.std::ios_base" = type { i32 (...)**, i64, i64, i32, i32, i32, %"struct.std::ios_base::_Callback_list"*, %"struct.std::ios_base::_Words", [8 x %"struct.std::ios_base::_Words"], i32, %"struct.std::ios_base::_Words"*, %"class.std::locale" }
%"struct.std::ios_base::_Callback_list" = type { %"struct.std::ios_base::_Callback_list"*, void (i32, %"class.std::ios_base"*, i32)*, i32, i32 }
%"struct.std::ios_base::_Words" = type { i8*, i64 }
%"class.std::locale" = type { %"class.std::locale::_Impl"* }
%"class.std::locale::_Impl" = type { i32, %"class.std::locale::facet"**, i64, %"class.std::locale::facet"**, i8** }
%"class.std::locale::facet" = type <{ i32 (...)**, i32, [4 x i8] }>
%"class.std::basic_ostream" = type { i32 (...)**, %"class.std::basic_ios" }
%"class.std::basic_streambuf" = type { i32 (...)**, i8*, i8*, i8*, i8*, i8*, i8*, %"class.std::locale" }
%"class.std::ctype" = type <{ %"class.std::locale::facet.base", [4 x i8], %struct.__locale_struct*, i8, [7 x i8], i32*, i32*, i16*, i8, [256 x i8], [256 x i8], i8, [6 x i8] }>
%"class.std::locale::facet.base" = type <{ i32 (...)**, i32 }>
%struct.__locale_struct = type { [13 x %struct.__locale_data*], i16*, i32*, i32*, [13 x i8*] }
%struct.__locale_data = type opaque
%"class.std::num_put" = type { %"class.std::locale::facet.base", [4 x i8] }
%"class.std::num_get" = type { %"class.std::locale::facet.base", [4 x i8] }

@_ZStL8__ioinit = internal global %"class.std::ios_base::Init" zeroinitializer, align 1
@__dso_handle = external hidden global i8
@_ZSt3cin = external global %"class.std::basic_istream", align 8
@_ZSt4cout = external global %"class.std::basic_ostream", align 8
@llvm.global_ctors = appending global [1 x { i32, void ()*, i8* }] [{ i32, void ()*, i8* } { i32 65535, void ()* @_GLOBAL__sub_I_1802.cpp, i8* null }]

declare void @_ZNSt8ios_base4InitC1Ev(%"class.std::ios_base::Init"* nonnull align 1 dereferenceable(1)) unnamed_addr #0

; Function Attrs: nounwind
declare void @_ZNSt8ios_base4InitD1Ev(%"class.std::ios_base::Init"* nonnull align 1 dereferenceable(1)) unnamed_addr #1

; Function Attrs: nofree nounwind
declare i32 @__cxa_atexit(void (i8*)*, i8*, i8*) local_unnamed_addr #2

; Function Attrs: mustprogress norecurse sspstrong uwtable
define dso_local i32 @main() local_unnamed_addr #3 {
  %1 = alloca i8, align 1
  %2 = alloca [100 x i8], align 16
  %3 = getelementptr inbounds [100 x i8], [100 x i8]* %2, i64 0, i64 0
  call void @llvm.lifetime.start.p0i8(i64 100, i8* nonnull %3) #7
  %4 = load i8*, i8** bitcast (%"class.std::basic_istream"* @_ZSt3cin to i8**), align 8, !tbaa !5
  %5 = getelementptr i8, i8* %4, i64 -24
  %6 = bitcast i8* %5 to i64*
  %7 = load i64, i64* %6, align 8
  %8 = add nsw i64 %7, 240
  %9 = getelementptr inbounds i8, i8* bitcast (%"class.std::basic_istream"* @_ZSt3cin to i8*), i64 %8
  %10 = bitcast i8* %9 to %"class.std::ctype"**
  %11 = load %"class.std::ctype"*, %"class.std::ctype"** %10, align 8, !tbaa !8
  %12 = icmp eq %"class.std::ctype"* %11, null
  br i1 %12, label %13, label %14

13:                                               ; preds = %0
  tail call void @_ZSt16__throw_bad_castv() #8
  unreachable

14:                                               ; preds = %0
  %15 = getelementptr inbounds %"class.std::ctype", %"class.std::ctype"* %11, i64 0, i32 8
  %16 = load i8, i8* %15, align 8, !tbaa !13
  %17 = icmp eq i8 %16, 0
  br i1 %17, label %21, label %18

18:                                               ; preds = %14
  %19 = getelementptr inbounds %"class.std::ctype", %"class.std::ctype"* %11, i64 0, i32 9, i64 10
  %20 = load i8, i8* %19, align 1, !tbaa !15
  br label %27

21:                                               ; preds = %14
  tail call void @_ZNKSt5ctypeIcE13_M_widen_initEv(%"class.std::ctype"* nonnull align 8 dereferenceable(570) %11)
  %22 = bitcast %"class.std::ctype"* %11 to i8 (%"class.std::ctype"*, i8)***
  %23 = load i8 (%"class.std::ctype"*, i8)**, i8 (%"class.std::ctype"*, i8)*** %22, align 8, !tbaa !5
  %24 = getelementptr inbounds i8 (%"class.std::ctype"*, i8)*, i8 (%"class.std::ctype"*, i8)** %23, i64 6
  %25 = load i8 (%"class.std::ctype"*, i8)*, i8 (%"class.std::ctype"*, i8)** %24, align 8
  %26 = tail call signext i8 %25(%"class.std::ctype"* nonnull align 8 dereferenceable(570) %11, i8 signext 10)
  br label %27

27:                                               ; preds = %18, %21
  %28 = phi i8 [ %20, %18 ], [ %26, %21 ]
  %29 = call nonnull align 8 dereferenceable(16) %"class.std::basic_istream"* @_ZNSi7getlineEPclc(%"class.std::basic_istream"* nonnull align 8 dereferenceable(16) @_ZSt3cin, i8* nonnull %3, i64 200, i8 signext %28)
  %30 = load i8, i8* %3, align 16, !tbaa !15
  %31 = icmp eq i8 %30, 0
  br i1 %31, label %51, label %32

32:                                               ; preds = %27, %45
  %33 = phi i64 [ %47, %45 ], [ 0, %27 ]
  %34 = phi i8 [ %49, %45 ], [ %30, %27 ]
  %35 = phi i8* [ %48, %45 ], [ %3, %27 ]
  %36 = phi i32 [ %46, %45 ], [ 0, %27 ]
  %37 = icmp eq i32 %36, 0
  %38 = icmp eq i8 %34, 32
  %39 = select i1 %37, i1 %38, i1 false
  br i1 %39, label %45, label %40

40:                                               ; preds = %32
  %41 = icmp ne i32 %36, 1
  %42 = xor i1 %38, true
  %43 = select i1 %41, i1 true, i1 %42
  br i1 %43, label %45, label %44

44:                                               ; preds = %40
  store i8 91, i8* %35, align 1, !tbaa !15
  br label %45

45:                                               ; preds = %40, %32, %44
  %46 = phi i32 [ 1, %44 ], [ 1, %32 ], [ 0, %40 ]
  %47 = add nuw i64 %33, 1
  %48 = getelementptr inbounds [100 x i8], [100 x i8]* %2, i64 0, i64 %47
  %49 = load i8, i8* %48, align 1, !tbaa !15
  %50 = icmp eq i8 %49, 0
  br i1 %50, label %51, label %32, !llvm.loop !16

51:                                               ; preds = %45, %27
  br label %52

52:                                               ; preds = %51, %58
  %53 = phi i64 [ %59, %58 ], [ 0, %51 ]
  %54 = getelementptr inbounds [100 x i8], [100 x i8]* %2, i64 0, i64 %53
  %55 = load i8, i8* %54, align 1, !tbaa !15
  switch i8 %55, label %56 [
    i8 0, label %60
    i8 91, label %58
  ]

56:                                               ; preds = %52
  call void @llvm.lifetime.start.p0i8(i64 1, i8* nonnull %1)
  store i8 %55, i8* %1, align 1, !tbaa !15
  %57 = call nonnull align 8 dereferenceable(8) %"class.std::basic_ostream"* @_ZSt16__ostream_insertIcSt11char_traitsIcEERSt13basic_ostreamIT_T0_ES6_PKS3_l(%"class.std::basic_ostream"* nonnull align 8 dereferenceable(8) @_ZSt4cout, i8* nonnull %1, i64 1)
  call void @llvm.lifetime.end.p0i8(i64 1, i8* nonnull %1)
  br label %58

58:                                               ; preds = %52, %56
  %59 = add nuw i64 %53, 1
  br label %52, !llvm.loop !18

60:                                               ; preds = %52
  call void @llvm.lifetime.end.p0i8(i64 100, i8* nonnull %3) #7
  ret i32 0
}

; Function Attrs: argmemonly mustprogress nofree nosync nounwind willreturn
declare void @llvm.lifetime.start.p0i8(i64 immarg, i8* nocapture) #4

; Function Attrs: argmemonly mustprogress nofree nosync nounwind willreturn
declare void @llvm.lifetime.end.p0i8(i64 immarg, i8* nocapture) #4

declare nonnull align 8 dereferenceable(16) %"class.std::basic_istream"* @_ZNSi7getlineEPclc(%"class.std::basic_istream"* nonnull align 8 dereferenceable(16), i8*, i64, i8 signext) local_unnamed_addr #0

; Function Attrs: noreturn
declare void @_ZSt16__throw_bad_castv() local_unnamed_addr #5

declare void @_ZNKSt5ctypeIcE13_M_widen_initEv(%"class.std::ctype"* nonnull align 8 dereferenceable(570)) local_unnamed_addr #0

declare nonnull align 8 dereferenceable(8) %"class.std::basic_ostream"* @_ZSt16__ostream_insertIcSt11char_traitsIcEERSt13basic_ostreamIT_T0_ES6_PKS3_l(%"class.std::basic_ostream"* nonnull align 8 dereferenceable(8), i8*, i64) local_unnamed_addr #0

; Function Attrs: sspstrong uwtable
define internal void @_GLOBAL__sub_I_1802.cpp() #6 section ".text.startup" {
  tail call void @_ZNSt8ios_base4InitC1Ev(%"class.std::ios_base::Init"* nonnull align 1 dereferenceable(1) @_ZStL8__ioinit)
  %1 = tail call i32 @__cxa_atexit(void (i8*)* bitcast (void (%"class.std::ios_base::Init"*)* @_ZNSt8ios_base4InitD1Ev to void (i8*)*), i8* getelementptr inbounds (%"class.std::ios_base::Init", %"class.std::ios_base::Init"* @_ZStL8__ioinit, i64 0, i32 0), i8* nonnull @__dso_handle) #7
  ret void
}


!llvm.module.flags = !{!0, !1, !2, !3}
!llvm.ident = !{!4}

!0 = !{i32 1, !"wchar_size", i32 4}
!1 = !{i32 7, !"PIC Level", i32 2}
!2 = !{i32 7, !"PIE Level", i32 2}
!3 = !{i32 7, !"uwtable", i32 1}
!4 = !{!"clang version 13.0.0"}
!5 = !{!6, !6, i64 0}
!6 = !{!"vtable pointer", !7, i64 0}
!7 = !{!"Simple C++ TBAA"}
!8 = !{!9, !10, i64 240}
!9 = !{!"_ZTSSt9basic_iosIcSt11char_traitsIcEE", !10, i64 216, !11, i64 224, !12, i64 225, !10, i64 232, !10, i64 240, !10, i64 248, !10, i64 256}
!10 = !{!"any pointer", !11, i64 0}
!11 = !{!"omnipotent char", !7, i64 0}
!12 = !{!"bool", !11, i64 0}
!13 = !{!14, !11, i64 56}
!14 = !{!"_ZTSSt5ctypeIcE", !10, i64 16, !12, i64 24, !10, i64 32, !10, i64 40, !10, i64 48, !11, i64 56, !11, i64 57, !11, i64 313, !11, i64 569}
!15 = !{!11, !11, i64 0}
!16 = distinct !{!16, !17}
!17 = !{!"llvm.loop.mustprogress"}
!18 = distinct !{!18, !17}
